; Function Attrs: mustprogress nounwind uwtable
define noundef i64 @_ZN7rocksdb11PosixHelper19GetUniqueIdFromFileEiPcm(i32 noundef %fd, ptr noundef %id, i64 noundef %max_size) local_unnamed_addr #3 align 2 {
entry:
  %buf = alloca %struct.stat, align 8
  %version = alloca i64, align 8
  %cmp = icmp ult i64 %max_size, 30
  br i1 %cmp, label %return, label %if.end

if.end:                                           ; preds = %entry
  %call = call i32 @fstat(i32 noundef %fd, ptr noundef nonnull %buf) #25
  %cmp1 = icmp eq i32 %call, -1
  br i1 %cmp1, label %return, label %if.end3

if.end3:                                          ; preds = %if.end
  store i64 0, ptr %version, align 8
  %call4 = call i32 (i32, i64, ...) @ioctl(i32 noundef %fd, i64 noundef 2148038145, ptr noundef nonnull %version) #25
  %cmp5 = icmp eq i32 %call4, -1
  br i1 %cmp5, label %return, label %if.end7

if.end7:                                          ; preds = %if.end3
  %0 = load i64, ptr %version, align 8
  %1 = load i64, ptr %buf, align 8
  %cmp6.i = icmp ugt i64 %1, 127
  br i1 %cmp6.i, label %while.body.i, label %_ZN7rocksdb14EncodeVarint64EPcm.exit

while.body.i:                                     ; preds = %if.end7, %while.body.i
  %ptr.08.i = phi ptr [ %incdec.ptr.i, %while.body.i ], [ %id, %if.end7 ]
  %v.addr.07.i = phi i64 [ %shr.i, %while.body.i ], [ %1, %if.end7 ]
  %2 = trunc i64 %v.addr.07.i to i8
  %conv.i = or i8 %2, -128
  %incdec.ptr.i = getelementptr inbounds i8, ptr %ptr.08.i, i64 1
  store i8 %conv.i, ptr %ptr.08.i, align 1
  %shr.i = lshr i64 %v.addr.07.i, 7
  %cmp.i = icmp ugt i64 %v.addr.07.i, 16383
  br i1 %cmp.i, label %while.body.i, label %_ZN7rocksdb14EncodeVarint64EPcm.exit, !llvm.loop !33

_ZN7rocksdb14EncodeVarint64EPcm.exit:             ; preds = %while.body.i, %if.end7
  %v.addr.0.lcssa.i = phi i64 [ %1, %if.end7 ], [ %shr.i, %while.body.i ]
  %ptr.0.lcssa.i = phi ptr [ %id, %if.end7 ], [ %incdec.ptr.i, %while.body.i ]
  %conv1.i = trunc i64 %v.addr.0.lcssa.i to i8
  %incdec.ptr2.i = getelementptr inbounds i8, ptr %ptr.0.lcssa.i, i64 1
  store i8 %conv1.i, ptr %ptr.0.lcssa.i, align 1
  %st_ino = getelementptr inbounds i8, ptr %buf, i64 8
  %3 = load i64, ptr %st_ino, align 8
  %cmp6.i7 = icmp ugt i64 %3, 127
  br i1 %cmp6.i7, label %while.body.i12, label %_ZN7rocksdb14EncodeVarint64EPcm.exit19

while.body.i12:                                   ; preds = %_ZN7rocksdb14EncodeVarint64EPcm.exit, %while.body.i12
  %ptr.08.i13 = phi ptr [ %incdec.ptr.i16, %while.body.i12 ], [ %incdec.ptr2.i, %_ZN7rocksdb14EncodeVarint64EPcm.exit ]
  %v.addr.07.i14 = phi i64 [ %shr.i17, %while.body.i12 ], [ %3, %_ZN7rocksdb14EncodeVarint64EPcm.exit ]
  %4 = trunc i64 %v.addr.07.i14 to i8
  %conv.i15 = or i8 %4, -128
  %incdec.ptr.i16 = getelementptr inbounds i8, ptr %ptr.08.i13, i64 1
  store i8 %conv.i15, ptr %ptr.08.i13, align 1
  %shr.i17 = lshr i64 %v.addr.07.i14, 7
  %cmp.i18 = icmp ugt i64 %v.addr.07.i14, 16383
  br i1 %cmp.i18, label %while.body.i12, label %_ZN7rocksdb14EncodeVarint64EPcm.exit19, !llvm.loop !33

_ZN7rocksdb14EncodeVarint64EPcm.exit19:           ; preds = %while.body.i12, %_ZN7rocksdb14EncodeVarint64EPcm.exit
  %v.addr.0.lcssa.i8 = phi i64 [ %3, %_ZN7rocksdb14EncodeVarint64EPcm.exit ], [ %shr.i17, %while.body.i12 ]
  %ptr.0.lcssa.i9 = phi ptr [ %incdec.ptr2.i, %_ZN7rocksdb14EncodeVarint64EPcm.exit ], [ %incdec.ptr.i16, %while.body.i12 ]
  %conv1.i10 = trunc i64 %v.addr.0.lcssa.i8 to i8
  %incdec.ptr2.i11 = getelementptr inbounds i8, ptr %ptr.0.lcssa.i9, i64 1
  store i8 %conv1.i10, ptr %ptr.0.lcssa.i9, align 1
  %cmp6.i20 = icmp ugt i64 %0, 127
  br i1 %cmp6.i20, label %while.body.i25, label %_ZN7rocksdb14EncodeVarint64EPcm.exit32

while.body.i25:                                   ; preds = %_ZN7rocksdb14EncodeVarint64EPcm.exit19, %while.body.i25
  %ptr.08.i26 = phi ptr [ %incdec.ptr.i29, %while.body.i25 ], [ %incdec.ptr2.i11, %_ZN7rocksdb14EncodeVarint64EPcm.exit19 ]
  %v.addr.07.i27 = phi i64 [ %shr.i30, %while.body.i25 ], [ %0, %_ZN7rocksdb14EncodeVarint64EPcm.exit19 ]
  %5 = trunc i64 %v.addr.07.i27 to i8
  %conv.i28 = or i8 %5, -128
  %incdec.ptr.i29 = getelementptr inbounds i8, ptr %ptr.08.i26, i64 1
  store i8 %conv.i28, ptr %ptr.08.i26, align 1
  %shr.i30 = lshr i64 %v.addr.07.i27, 7
  %cmp.i31 = icmp ugt i64 %v.addr.07.i27, 16383
  br i1 %cmp.i31, label %while.body.i25, label %_ZN7rocksdb14EncodeVarint64EPcm.exit32, !llvm.loop !33

_ZN7rocksdb14EncodeVarint64EPcm.exit32:           ; preds = %while.body.i25, %_ZN7rocksdb14EncodeVarint64EPcm.exit19
  %v.addr.0.lcssa.i21 = phi i64 [ %0, %_ZN7rocksdb14EncodeVarint64EPcm.exit19 ], [ %shr.i30, %while.body.i25 ]
  %ptr.0.lcssa.i22 = phi ptr [ %incdec.ptr2.i11, %_ZN7rocksdb14EncodeVarint64EPcm.exit19 ], [ %incdec.ptr.i29, %while.body.i25 ]
  %conv1.i23 = trunc i64 %v.addr.0.lcssa.i21 to i8
  %incdec.ptr2.i24 = getelementptr inbounds i8, ptr %ptr.0.lcssa.i22, i64 1
  store i8 %conv1.i23, ptr %ptr.0.lcssa.i22, align 1
  %sub.ptr.lhs.cast = ptrtoint ptr %incdec.ptr2.i24 to i64
  %sub.ptr.rhs.cast = ptrtoint ptr %id to i64
  %sub.ptr.sub = sub i64 %sub.ptr.lhs.cast, %sub.ptr.rhs.cast
  br label %return

return:                                           ; preds = %if.end3, %if.end, %entry, %_ZN7rocksdb14EncodeVarint64EPcm.exit32
  %retval.0 = phi i64 [ %sub.ptr.sub, %_ZN7rocksdb14EncodeVarint64EPcm.exit32 ], [ 0, %entry ], [ 0, %if.end ], [ 0, %if.end3 ]
  ret i64 %retval.0
}